; Function Attrs: mustprogress uwtable
define noundef zeroext i1 @_ZN8DataHash3CmpEP9HashValuePh(ptr nocapture noundef nonnull readonly align 8 dereferenceable(16) %0, ptr nocapture noundef readonly %1, ptr noundef %2) local_unnamed_addr #8 align 2 {
  %4 = alloca %struct.HashValue, align 4
  call void @_ZN8DataHash6ResultEP9HashValue(ptr noundef nonnull align 8 dereferenceable(16) %0, ptr noundef nonnull %4)
  %.not = icmp eq ptr %2, null
  br i1 %.not, label %6, label %5

5:                                                ; preds = %3
  call void @_Z16ConvertHashToMACP9HashValuePh(ptr noundef nonnull %4, ptr noundef nonnull %2)
  br label %6

6:                                                ; preds = %5, %3
  %7 = load i32, ptr %4, align 4
  %8 = icmp eq i32 %7, 0
  br i1 %8, label %_ZNK9HashValueeqERKS_.exit, label %9

9:                                                ; preds = %6
  %10 = load i32, ptr %1, align 4
  %11 = icmp eq i32 %10, 0
  br i1 %11, label %_ZNK9HashValueeqERKS_.exit, label %12

12:                                               ; preds = %9
  %13 = icmp eq i32 %7, 1
  %14 = icmp eq i32 %10, 1
  %or.cond.i = and i1 %13, %14
  br i1 %or.cond.i, label %18, label %15

15:                                               ; preds = %12
  %16 = icmp eq i32 %7, 2
  %17 = icmp eq i32 %10, 2
  %or.cond11.i = and i1 %16, %17
  br i1 %or.cond11.i, label %18, label %24

18:                                               ; preds = %15, %12
  %19 = getelementptr inbounds i8, ptr %4, i64 4
  %20 = load i32, ptr %19, align 4
  %21 = getelementptr inbounds i8, ptr %1, i64 4
  %22 = load i32, ptr %21, align 4
  %23 = icmp eq i32 %20, %22
  br label %_ZNK9HashValueeqERKS_.exit

24:                                               ; preds = %15
  %25 = icmp eq i32 %7, 3
  %26 = icmp eq i32 %10, 3
  %or.cond13.i = and i1 %25, %26
  br i1 %or.cond13.i, label %27, label %_ZNK9HashValueeqERKS_.exit

27:                                               ; preds = %24
  %28 = getelementptr inbounds i8, ptr %4, i64 4
  %29 = getelementptr inbounds i8, ptr %1, i64 4
  %bcmp.i = call i32 @bcmp(ptr noundef nonnull dereferenceable(32) %28, ptr noundef nonnull dereferenceable(32) %29, i64 32)
  %30 = icmp eq i32 %bcmp.i, 0
  br label %_ZNK9HashValueeqERKS_.exit

_ZNK9HashValueeqERKS_.exit:                       ; preds = %6, %9, %18, %24, %27
  %.0.i = phi i1 [ %23, %18 ], [ %30, %27 ], [ true, %9 ], [ true, %6 ], [ false, %24 ]
  ret i1 %.0.i
}